(lp0
ccopy_reg
_reconstructor
p1
(csklearn.preprocessing.label
LabelEncoder
p2
c__builtin__
object
p3
Ntp4
Rp5
(dp6
S'classes_'
p7
cnumpy.core.multiarray
_reconstruct
p8
(cnumpy
ndarray
p9
(I0
tp10
S'b'
p11
tp12
Rp13
(I1
(I3
tp14
cnumpy
dtype
p15
(S'S6'
p16
I0
I1
tp17
Rp18
(I3
S'<'
p19
NNNI6
I1
I0
tp20
bI00
S'\x00\x00\x00\x00\x00\x00FemaleMale\x00\x00'
p21
tp22
bsbag1
(g2
g3
Ntp23
Rp24
(dp25
g7
g8
(g9
(I0
tp26
g11
tp27
Rp28
(I1
(I7
tp29
g15
(S'S19'
p30
I0
I1
tp31
Rp32
(I3
S'<'
p33
NNNI19
I1
I0
tp34
bI00
S'\x00\x00\x00\x00\x00\x00\x00\x00\x00\x00\x00\x00\x00\x00\x00\x00\x00\x00\x00$100,001 - $150,000$25,001 - $50,000\x00\x00$50,000 - $74,999\x00\x00$75,000 - $100,000\x00over $150,000\x00\x00\x00\x00\x00\x00under $25,000\x00\x00\x00\x00\x00\x00'
p35
tp36
bsbag1
(g2
g3
Ntp37
Rp38
(dp39
g7
g8
(g9
(I0
tp40
g11
tp41
Rp42
(I1
(I7
tp43
g15
(S'S27'
p44
I0
I1
tp45
Rp46
(I3
S'<'
p47
NNNI27
I1
I0
tp48
bI00
S'\x00\x00\x00\x00\x00\x00\x00\x00\x00\x00\x00\x00\x00\x00\x00\x00\x00\x00\x00\x00\x00\x00\x00\x00\x00\x00\x00Domestic Partners (no kids)Domestic Partners (w/kids)\x00Married (no kids)\x00\x00\x00\x00\x00\x00\x00\x00\x00\x00Married (w/kids)\x00\x00\x00\x00\x00\x00\x00\x00\x00\x00\x00Single (no kids)\x00\x00\x00\x00\x00\x00\x00\x00\x00\x00\x00Single (w/kids)\x00\x00\x00\x00\x00\x00\x00\x00\x00\x00\x00\x00'
p49
tp50
bsbag1
(g2
g3
Ntp51
Rp52
(dp53
g7
g8
(g9
(I0
tp54
g11
tp55
Rp56
(I1
(I8
tp57
g15
(S'S21'
p58
I0
I1
tp59
Rp60
(I3
S'<'
p61
NNNI21
I1
I0
tp62
bI00
S"\x00\x00\x00\x00\x00\x00\x00\x00\x00\x00\x00\x00\x00\x00\x00\x00\x00\x00\x00\x00\x00Associate's Degree\x00\x00\x00Bachelor's Degree\x00\x00\x00\x00Current K-12\x00\x00\x00\x00\x00\x00\x00\x00\x00Current UndergraduateDoctoral Degree\x00\x00\x00\x00\x00\x00High School Diploma\x00\x00Master's Degree\x00\x00\x00\x00\x00\x00"
p63
tp64
bsbag1
(g2
g3
Ntp65
Rp66
(dp67
g7
g8
(g9
(I0
tp68
g11
tp69
Rp70
(I1
(I6
tp71
g15
(S'S11'
p72
I0
I1
tp73
Rp74
(I3
S'<'
p75
NNNI11
I1
I0
tp76
bI00
S'\x00\x00\x00\x00\x00\x00\x00\x00\x00\x00\x00Democrat\x00\x00\x00IndependentLibertarianOther\x00\x00\x00\x00\x00\x00Republican\x00'
p77
tp78
bsbag1
(g2
g3
Ntp79
Rp80
(dp81
g7
g8
(g9
(I0
tp82
g11
tp83
Rp84
(I1
(I3
tp85
g15
(S'S3'
p86
I0
I1
tp87
Rp88
(I3
S'<'
p89
NNNI3
I1
I0
tp90
bI00
S'\x00\x00\x00No\x00Yes'
p91
tp92
bsbag1
(g2
g3
Ntp93
Rp94
(dp95
g7
g8
(g9
(I0
tp96
g11
tp97
Rp98
(I1
(I3
tp99
g15
(S'S3'
p100
I0
I1
tp101
Rp102
(I3
S'<'
p103
NNNI3
I1
I0
tp104
bI00
S'\x00\x00\x00No\x00Yes'
p105
tp106
bsbag1
(g2
g3
Ntp107
Rp108
(dp109
g7
g8
(g9
(I0
tp110
g11
tp111
Rp112
(I1
(I3
tp113
g15
(S'S3'
p114
I0
I1
tp115
Rp116
(I3
S'<'
p117
NNNI3
I1
I0
tp118
bI00
S'\x00\x00\x00No\x00Yes'
p119
tp120
bsbag1
(g2
g3
Ntp121
Rp122
(dp123
g7
g8
(g9
(I0
tp124
g11
tp125
Rp126
(I1
(I3
tp127
g15
(S'S3'
p128
I0
I1
tp129
Rp130
(I3
S'<'
p131
NNNI3
I1
I0
tp132
bI00
S'\x00\x00\x00No\x00Yes'
p133
tp134
bsbag1
(g2
g3
Ntp135
Rp136
(dp137
g7
g8
(g9
(I0
tp138
g11
tp139
Rp140
(I1
(I3
tp141
g15
(S'S3'
p142
I0
I1
tp143
Rp144
(I3
S'<'
p145
NNNI3
I1
I0
tp146
bI00
S'\x00\x00\x00No\x00Yes'
p147
tp148
bsbag1
(g2
g3
Ntp149
Rp150
(dp151
g7
g8
(g9
(I0
tp152
g11
tp153
Rp154
(I1
(I3
tp155
g15
(S'S3'
p156
I0
I1
tp157
Rp158
(I3
S'<'
p159
NNNI3
I1
I0
tp160
bI00
S'\x00\x00\x00No\x00Yes'
p161
tp162
bsbag1
(g2
g3
Ntp163
Rp164
(dp165
g7
g8
(g9
(I0
tp166
g11
tp167
Rp168
(I1
(I3
tp169
g15
(S'S7'
p170
I0
I1
tp171
Rp172
(I3
S'<'
p173
NNNI7
I1
I0
tp174
bI00
S'\x00\x00\x00\x00\x00\x00\x00PrivatePublic\x00'
p175
tp176
bsbag1
(g2
g3
Ntp177
Rp178
(dp179
g7
g8
(g9
(I0
tp180
g11
tp181
Rp182
(I1
(I3
tp183
g15
(S'S3'
p184
I0
I1
tp185
Rp186
(I3
S'<'
p187
NNNI3
I1
I0
tp188
bI00
S'\x00\x00\x00No\x00Yes'
p189
tp190
bsbag1
(g2
g3
Ntp191
Rp192
(dp193
g7
g8
(g9
(I0
tp194
g11
tp195
Rp196
(I1
(I3
tp197
g15
(S'S3'
p198
I0
I1
tp199
Rp200
(I3
S'<'
p201
NNNI3
I1
I0
tp202
bI00
S'\x00\x00\x00No\x00Yes'
p203
tp204
bsbag1
(g2
g3
Ntp205
Rp206
(dp207
g7
g8
(g9
(I0
tp208
g11
tp209
Rp210
(I1
(I3
tp211
g15
(S'S3'
p212
I0
I1
tp213
Rp214
(I3
S'<'
p215
NNNI3
I1
I0
tp216
bI00
S'\x00\x00\x00No\x00Yes'
p217
tp218
bsbag1
(g2
g3
Ntp219
Rp220
(dp221
g7
g8
(g9
(I0
tp222
g11
tp223
Rp224
(I1
(I3
tp225
g15
(S'S3'
p226
I0
I1
tp227
Rp228
(I3
S'<'
p229
NNNI3
I1
I0
tp230
bI00
S'\x00\x00\x00No\x00Yes'
p231
tp232
bsbag1
(g2
g3
Ntp233
Rp234
(dp235
g7
g8
(g9
(I0
tp236
g11
tp237
Rp238
(I1
(I3
tp239
g15
(S'S3'
p240
I0
I1
tp241
Rp242
(I3
S'<'
p243
NNNI3
I1
I0
tp244
bI00
S'\x00\x00\x00No\x00Yes'
p245
tp246
bsbag1
(g2
g3
Ntp247
Rp248
(dp249
g7
g8
(g9
(I0
tp250
g11
tp251
Rp252
(I1
(I3
tp253
g15
(S'S3'
p254
I0
I1
tp255
Rp256
(I3
S'<'
p257
NNNI3
I1
I0
tp258
bI00
S'\x00\x00\x00No\x00Yes'
p259
tp260
bsbag1
(g2
g3
Ntp261
Rp262
(dp263
g7
g8
(g9
(I0
tp264
g11
tp265
Rp266
(I1
(I3
tp267
g15
(S'S3'
p268
I0
I1
tp269
Rp270
(I3
S'<'
p271
NNNI3
I1
I0
tp272
bI00
S'\x00\x00\x00No\x00Yes'
p273
tp274
bsbag1
(g2
g3
Ntp275
Rp276
(dp277
g7
g8
(g9
(I0
tp278
g11
tp279
Rp280
(I1
(I3
tp281
g15
(S'S7'
p282
I0
I1
tp283
Rp284
(I3
S'<'
p285
NNNI7
I1
I0
tp286
bI00
S'\x00\x00\x00\x00\x00\x00\x00Art\x00\x00\x00\x00Science'
p287
tp288
bsbag1
(g2
g3
Ntp289
Rp290
(dp291
g7
g8
(g9
(I0
tp292
g11
tp293
Rp294
(I1
(I3
tp295
g15
(S'S11'
p296
I0
I1
tp297
Rp298
(I3
S'<'
p299
NNNI11
I1
I0
tp300
bI00
S'\x00\x00\x00\x00\x00\x00\x00\x00\x00\x00\x00Study firstTry first\x00\x00'
p301
tp302
bsbag1
(g2
g3
Ntp303
Rp304
(dp305
g7
g8
(g9
(I0
tp306
g11
tp307
Rp308
(I1
(I3
tp309
g15
(S'S3'
p310
I0
I1
tp311
Rp312
(I3
S'<'
p313
NNNI3
I1
I0
tp314
bI00
S'\x00\x00\x00No\x00Yes'
p315
tp316
bsbag1
(g2
g3
Ntp317
Rp318
(dp319
g7
g8
(g9
(I0
tp320
g11
tp321
Rp322
(I1
(I3
tp323
g15
(S'S3'
p324
I0
I1
tp325
Rp326
(I3
S'<'
p327
NNNI3
I1
I0
tp328
bI00
S'\x00\x00\x00No\x00Yes'
p329
tp330
bsbag1
(g2
g3
Ntp331
Rp332
(dp333
g7
g8
(g9
(I0
tp334
g11
tp335
Rp336
(I1
(I3
tp337
g15
(S'S3'
p338
I0
I1
tp339
Rp340
(I3
S'<'
p341
NNNI3
I1
I0
tp342
bI00
S'\x00\x00\x00No\x00Yes'
p343
tp344
bsbag1
(g2
g3
Ntp345
Rp346
(dp347
g7
g8
(g9
(I0
tp348
g11
tp349
Rp350
(I1
(I3
tp351
g15
(S'S3'
p352
I0
I1
tp353
Rp354
(I3
S'<'
p355
NNNI3
I1
I0
tp356
bI00
S'\x00\x00\x00No\x00Yes'
p357
tp358
bsbag1
(g2
g3
Ntp359
Rp360
(dp361
g7
g8
(g9
(I0
tp362
g11
tp363
Rp364
(I1
(I3
tp365
g15
(S'S9'
p366
I0
I1
tp367
Rp368
(I3
S'<'
p369
NNNI9
I1
I0
tp370
bI00
S'\x00\x00\x00\x00\x00\x00\x00\x00\x00Giving\x00\x00\x00Receiving'
p371
tp372
bsbag1
(g2
g3
Ntp373
Rp374
(dp375
g7
g8
(g9
(I0
tp376
g11
tp377
Rp378
(I1
(I3
tp379
g15
(S'S3'
p380
I0
I1
tp381
Rp382
(I3
S'<'
p383
NNNI3
I1
I0
tp384
bI00
S'\x00\x00\x00No\x00Yes'
p385
tp386
bsbag1
(g2
g3
Ntp387
Rp388
(dp389
g7
g8
(g9
(I0
tp390
g11
tp391
Rp392
(I1
(I3
tp393
g15
(S'S3'
p394
I0
I1
tp395
Rp396
(I3
S'<'
p397
NNNI3
I1
I0
tp398
bI00
S'\x00\x00\x00No\x00Yes'
p399
tp400
bsbag1
(g2
g3
Ntp401
Rp402
(dp403
g7
g8
(g9
(I0
tp404
g11
tp405
Rp406
(I1
(I3
tp407
g15
(S'S10'
p408
I0
I1
tp409
Rp410
(I3
S'<'
p411
NNNI10
I1
I0
tp412
bI00
S'\x00\x00\x00\x00\x00\x00\x00\x00\x00\x00Idealist\x00\x00Pragmatist'
p413
tp414
bsbag1
(g2
g3
Ntp415
Rp416
(dp417
g7
g8
(g9
(I0
tp418
g11
tp419
Rp420
(I1
(I3
tp421
g15
(S'S3'
p422
I0
I1
tp423
Rp424
(I3
S'<'
p425
NNNI3
I1
I0
tp426
bI00
S'\x00\x00\x00No\x00Yes'
p427
tp428
bsbag1
(g2
g3
Ntp429
Rp430
(dp431
g7
g8
(g9
(I0
tp432
g11
tp433
Rp434
(I1
(I3
tp435
g15
(S'S3'
p436
I0
I1
tp437
Rp438
(I3
S'<'
p439
NNNI3
I1
I0
tp440
bI00
S'\x00\x00\x00No\x00Yes'
p441
tp442
bsbag1
(g2
g3
Ntp443
Rp444
(dp445
g7
g8
(g9
(I0
tp446
g11
tp447
Rp448
(I1
(I3
tp449
g15
(S'S11'
p450
I0
I1
tp451
Rp452
(I3
S'<'
p453
NNNI11
I1
I0
tp454
bI00
S'\x00\x00\x00\x00\x00\x00\x00\x00\x00\x00\x00Cool headedHot headed\x00'
p455
tp456
bsbag1
(g2
g3
Ntp457
Rp458
(dp459
g7
g8
(g9
(I0
tp460
g11
tp461
Rp462
(I1
(I3
tp463
g15
(S'S14'
p464
I0
I1
tp465
Rp466
(I3
S'<'
p467
NNNI14
I1
I0
tp468
bI00
S'\x00\x00\x00\x00\x00\x00\x00\x00\x00\x00\x00\x00\x00\x00Odd hours\x00\x00\x00\x00\x00Standard hours'
p469
tp470
bsbag1
(g2
g3
Ntp471
Rp472
(dp473
g7
g8
(g9
(I0
tp474
g11
tp475
Rp476
(I1
(I3
tp477
g15
(S'S3'
p478
I0
I1
tp479
Rp480
(I3
S'<'
p481
NNNI3
I1
I0
tp482
bI00
S'\x00\x00\x00No\x00Yes'
p483
tp484
bsbag1
(g2
g3
Ntp485
Rp486
(dp487
g7
g8
(g9
(I0
tp488
g11
tp489
Rp490
(I1
(I3
tp491
g15
(S'S5'
p492
I0
I1
tp493
Rp494
(I3
S'<'
p495
NNNI5
I1
I0
tp496
bI00
S'\x00\x00\x00\x00\x00HappyRight'
p497
tp498
bsbag1
(g2
g3
Ntp499
Rp500
(dp501
g7
g8
(g9
(I0
tp502
g11
tp503
Rp504
(I1
(I3
tp505
g15
(S'S3'
p506
I0
I1
tp507
Rp508
(I3
S'<'
p509
NNNI3
I1
I0
tp510
bI00
S'\x00\x00\x00No\x00Yes'
p511
tp512
bsbag1
(g2
g3
Ntp513
Rp514
(dp515
g7
g8
(g9
(I0
tp516
g11
tp517
Rp518
(I1
(I3
tp519
g15
(S'S3'
p520
I0
I1
tp521
Rp522
(I3
S'<'
p523
NNNI3
I1
I0
tp524
bI00
S'\x00\x00\x00No\x00Yes'
p525
tp526
bsbag1
(g2
g3
Ntp527
Rp528
(dp529
g7
g8
(g9
(I0
tp530
g11
tp531
Rp532
(I1
(I3
tp533
g15
(S'S3'
p534
I0
I1
tp535
Rp536
(I3
S'<'
p537
NNNI3
I1
I0
tp538
bI00
S'\x00\x00\x00No\x00Yes'
p539
tp540
bsbag1
(g2
g3
Ntp541
Rp542
(dp543
g7
g8
(g9
(I0
tp544
g11
tp545
Rp546
(I1
(I3
tp547
g15
(S'S3'
p548
I0
I1
tp549
Rp550
(I3
S'<'
p551
NNNI3
I1
I0
tp552
bI00
S'\x00\x00\x00No\x00Yes'
p553
tp554
bsbag1
(g2
g3
Ntp555
Rp556
(dp557
g7
g8
(g9
(I0
tp558
g11
tp559
Rp560
(I1
(I3
tp561
g15
(S'S4'
p562
I0
I1
tp563
Rp564
(I3
S'<'
p565
NNNI4
I1
I0
tp566
bI00
S'\x00\x00\x00\x00A.M.P.M.'
p567
tp568
bsbag1
(g2
g3
Ntp569
Rp570
(dp571
g7
g8
(g9
(I0
tp572
g11
tp573
Rp574
(I1
(I3
tp575
g15
(S'S3'
p576
I0
I1
tp577
Rp578
(I3
S'<'
p579
NNNI3
I1
I0
tp580
bI00
S'\x00\x00\x00No\x00Yes'
p581
tp582
bsbag1
(g2
g3
Ntp583
Rp584
(dp585
g7
g8
(g9
(I0
tp586
g11
tp587
Rp588
(I1
(I3
tp589
g15
(S'S5'
p590
I0
I1
tp591
Rp592
(I3
S'<'
p593
NNNI5
I1
I0
tp594
bI00
S'\x00\x00\x00\x00\x00End\x00\x00Start'
p595
tp596
bsbag1
(g2
g3
Ntp597
Rp598
(dp599
g7
g8
(g9
(I0
tp600
g11
tp601
Rp602
(I1
(I3
tp603
g15
(S'S3'
p604
I0
I1
tp605
Rp606
(I3
S'<'
p607
NNNI3
I1
I0
tp608
bI00
S'\x00\x00\x00No\x00Yes'
p609
tp610
bsbag1
(g2
g3
Ntp611
Rp612
(dp613
g7
g8
(g9
(I0
tp614
g11
tp615
Rp616
(I1
(I3
tp617
g15
(S'S3'
p618
I0
I1
tp619
Rp620
(I3
S'<'
p621
NNNI3
I1
I0
tp622
bI00
S'\x00\x00\x00No\x00Yes'
p623
tp624
bsbag1
(g2
g3
Ntp625
Rp626
(dp627
g7
g8
(g9
(I0
tp628
g11
tp629
Rp630
(I1
(I3
tp631
g15
(S'S13'
p632
I0
I1
tp633
Rp634
(I3
S'<'
p635
NNNI13
I1
I0
tp636
bI00
S'\x00\x00\x00\x00\x00\x00\x00\x00\x00\x00\x00\x00\x00CircumstancesMe\x00\x00\x00\x00\x00\x00\x00\x00\x00\x00\x00'
p637
tp638
bsbag1
(g2
g3
Ntp639
Rp640
(dp641
g7
g8
(g9
(I0
tp642
g11
tp643
Rp644
(I1
(I3
tp645
g15
(S'S3'
p646
I0
I1
tp647
Rp648
(I3
S'<'
p649
NNNI3
I1
I0
tp650
bI00
S'\x00\x00\x00No\x00Yes'
p651
tp652
bsbag1
(g2
g3
Ntp653
Rp654
(dp655
g7
g8
(g9
(I0
tp656
g11
tp657
Rp658
(I1
(I3
tp659
g15
(S'S3'
p660
I0
I1
tp661
Rp662
(I3
S'<'
p663
NNNI3
I1
I0
tp664
bI00
S'\x00\x00\x00No\x00Yes'
p665
tp666
bsbag1
(g2
g3
Ntp667
Rp668
(dp669
g7
g8
(g9
(I0
tp670
g11
tp671
Rp672
(I1
(I3
tp673
g15
(S'S3'
p674
I0
I1
tp675
Rp676
(I3
S'<'
p677
NNNI3
I1
I0
tp678
bI00
S'\x00\x00\x00No\x00Yes'
p679
tp680
bsbag1
(g2
g3
Ntp681
Rp682
(dp683
g7
g8
(g9
(I0
tp684
g11
tp685
Rp686
(I1
(I3
tp687
g15
(S'S3'
p688
I0
I1
tp689
Rp690
(I3
S'<'
p691
NNNI3
I1
I0
tp692
bI00
S'\x00\x00\x00No\x00Yes'
p693
tp694
bsbag1
(g2
g3
Ntp695
Rp696
(dp697
g7
g8
(g9
(I0
tp698
g11
tp699
Rp700
(I1
(I3
tp701
g15
(S'S3'
p702
I0
I1
tp703
Rp704
(I3
S'<'
p705
NNNI3
I1
I0
tp706
bI00
S'\x00\x00\x00No\x00Yes'
p707
tp708
bsbag1
(g2
g3
Ntp709
Rp710
(dp711
g7
g8
(g9
(I0
tp712
g11
tp713
Rp714
(I1
(I3
tp715
g15
(S'S10'
p716
I0
I1
tp717
Rp718
(I3
S'<'
p719
NNNI10
I1
I0
tp720
bI00
S'\x00\x00\x00\x00\x00\x00\x00\x00\x00\x00MysteriousTMI\x00\x00\x00\x00\x00\x00\x00'
p721
tp722
bsbag1
(g2
g3
Ntp723
Rp724
(dp725
g7
g8
(g9
(I0
tp726
g11
tp727
Rp728
(I1
(I3
tp729
g15
(S'S3'
p730
I0
I1
tp731
Rp732
(I3
S'<'
p733
NNNI3
I1
I0
tp734
bI00
S'\x00\x00\x00No\x00Yes'
p735
tp736
bsbag1
(g2
g3
Ntp737
Rp738
(dp739
g7
g8
(g9
(I0
tp740
g11
tp741
Rp742
(I1
(I3
tp743
g15
(S'S3'
p744
I0
I1
tp745
Rp746
(I3
S'<'
p747
NNNI3
I1
I0
tp748
bI00
S'\x00\x00\x00No\x00Yes'
p749
tp750
bsbag1
(g2
g3
Ntp751
Rp752
(dp753
g7
g8
(g9
(I0
tp754
g11
tp755
Rp756
(I1
(I3
tp757
g15
(S'S5'
p758
I0
I1
tp759
Rp760
(I3
S'<'
p761
NNNI5
I1
I0
tp762
bI00
S'\x00\x00\x00\x00\x00Talk\x00Tunes'
p763
tp764
bsbag1
(g2
g3
Ntp765
Rp766
(dp767
g7
g8
(g9
(I0
tp768
g11
tp769
Rp770
(I1
(I3
tp771
g15
(S'S10'
p772
I0
I1
tp773
Rp774
(I3
S'<'
p775
NNNI10
I1
I0
tp776
bI00
S'\x00\x00\x00\x00\x00\x00\x00\x00\x00\x00People\x00\x00\x00\x00Technology'
p777
tp778
bsbag1
(g2
g3
Ntp779
Rp780
(dp781
g7
g8
(g9
(I0
tp782
g11
tp783
Rp784
(I1
(I3
tp785
g15
(S'S3'
p786
I0
I1
tp787
Rp788
(I3
S'<'
p789
NNNI3
I1
I0
tp790
bI00
S'\x00\x00\x00No\x00Yes'
p791
tp792
bsbag1
(g2
g3
Ntp793
Rp794
(dp795
g7
g8
(g9
(I0
tp796
g11
tp797
Rp798
(I1
(I3
tp799
g15
(S'S3'
p800
I0
I1
tp801
Rp802
(I3
S'<'
p803
NNNI3
I1
I0
tp804
bI00
S'\x00\x00\x00No\x00Yes'
p805
tp806
bsbag1
(g2
g3
Ntp807
Rp808
(dp809
g7
g8
(g9
(I0
tp810
g11
tp811
Rp812
(I1
(I3
tp813
g15
(S'S3'
p814
I0
I1
tp815
Rp816
(I3
S'<'
p817
NNNI3
I1
I0
tp818
bI00
S'\x00\x00\x00No\x00Yes'
p819
tp820
bsbag1
(g2
g3
Ntp821
Rp822
(dp823
g7
g8
(g9
(I0
tp824
g11
tp825
Rp826
(I1
(I3
tp827
g15
(S'S3'
p828
I0
I1
tp829
Rp830
(I3
S'<'
p831
NNNI3
I1
I0
tp832
bI00
S'\x00\x00\x00No\x00Yes'
p833
tp834
bsbag1
(g2
g3
Ntp835
Rp836
(dp837
g7
g8
(g9
(I0
tp838
g11
tp839
Rp840
(I1
(I3
tp841
g15
(S'S3'
p842
I0
I1
tp843
Rp844
(I3
S'<'
p845
NNNI3
I1
I0
tp846
bI00
S'\x00\x00\x00No\x00Yes'
p847
tp848
bsbag1
(g2
g3
Ntp849
Rp850
(dp851
g7
g8
(g9
(I0
tp852
g11
tp853
Rp854
(I1
(I3
tp855
g15
(S'S10'
p856
I0
I1
tp857
Rp858
(I3
S'<'
p859
NNNI10
I1
I0
tp860
bI00
S'\x00\x00\x00\x00\x00\x00\x00\x00\x00\x00Demanding\x00Supportive'
p861
tp862
bsbag1
(g2
g3
Ntp863
Rp864
(dp865
g7
g8
(g9
(I0
tp866
g11
tp867
Rp868
(I1
(I3
tp869
g15
(S'S3'
p870
I0
I1
tp871
Rp872
(I3
S'<'
p873
NNNI3
I1
I0
tp874
bI00
S'\x00\x00\x00No\x00Yes'
p875
tp876
bsbag1
(g2
g3
Ntp877
Rp878
(dp879
g7
g8
(g9
(I0
tp880
g11
tp881
Rp882
(I1
(I3
tp883
g15
(S'S3'
p884
I0
I1
tp885
Rp886
(I3
S'<'
p887
NNNI3
I1
I0
tp888
bI00
S'\x00\x00\x00MacPC\x00'
p889
tp890
bsbag1
(g2
g3
Ntp891
Rp892
(dp893
g7
g8
(g9
(I0
tp894
g11
tp895
Rp896
(I1
(I3
tp897
g15
(S'S3'
p898
I0
I1
tp899
Rp900
(I3
S'<'
p901
NNNI3
I1
I0
tp902
bI00
S'\x00\x00\x00No\x00Yes'
p903
tp904
bsbag1
(g2
g3
Ntp905
Rp906
(dp907
g7
g8
(g9
(I0
tp908
g11
tp909
Rp910
(I1
(I3
tp911
g15
(S'S13'
p912
I0
I1
tp913
Rp914
(I3
S'<'
p915
NNNI13
I1
I0
tp916
bI00
S'\x00\x00\x00\x00\x00\x00\x00\x00\x00\x00\x00\x00\x00Cautious\x00\x00\x00\x00\x00Risk-friendly'
p917
tp918
bsbag1
(g2
g3
Ntp919
Rp920
(dp921
g7
g8
(g9
(I0
tp922
g11
tp923
Rp924
(I1
(I3
tp925
g15
(S'S3'
p926
I0
I1
tp927
Rp928
(I3
S'<'
p929
NNNI3
I1
I0
tp930
bI00
S'\x00\x00\x00No\x00Yes'
p931
tp932
bsbag1
(g2
g3
Ntp933
Rp934
(dp935
g7
g8
(g9
(I0
tp936
g11
tp937
Rp938
(I1
(I3
tp939
g15
(S'S6'
p940
I0
I1
tp941
Rp942
(I3
S'<'
p943
NNNI6
I1
I0
tp944
bI00
S'\x00\x00\x00\x00\x00\x00Umm...Yes!\x00\x00'
p945
tp946
bsbag1
(g2
g3
Ntp947
Rp948
(dp949
g7
g8
(g9
(I0
tp950
g11
tp951
Rp952
(I1
(I3
tp953
g15
(S'S3'
p954
I0
I1
tp955
Rp956
(I3
S'<'
p957
NNNI3
I1
I0
tp958
bI00
S'\x00\x00\x00No\x00Yes'
p959
tp960
bsbag1
(g2
g3
Ntp961
Rp962
(dp963
g7
g8
(g9
(I0
tp964
g11
tp965
Rp966
(I1
(I3
tp967
g15
(S'S9'
p968
I0
I1
tp969
Rp970
(I3
S'<'
p971
NNNI9
I1
I0
tp972
bI00
S'\x00\x00\x00\x00\x00\x00\x00\x00\x00SocializeSpace\x00\x00\x00\x00'
p973
tp974
bsbag1
(g2
g3
Ntp975
Rp976
(dp977
g7
g8
(g9
(I0
tp978
g11
tp979
Rp980
(I1
(I3
tp981
g15
(S'S3'
p982
I0
I1
tp983
Rp984
(I3
S'<'
p985
NNNI3
I1
I0
tp986
bI00
S'\x00\x00\x00No\x00Yes'
p987
tp988
bsbag1
(g2
g3
Ntp989
Rp990
(dp991
g7
g8
(g9
(I0
tp992
g11
tp993
Rp994
(I1
(I3
tp995
g15
(S'S9'
p996
I0
I1
tp997
Rp998
(I3
S'<'
p999
NNNI9
I1
I0
tp1000
bI00
S'\x00\x00\x00\x00\x00\x00\x00\x00\x00In-personOnline\x00\x00\x00'
p1001
tp1002
bsbag1
(g2
g3
Ntp1003
Rp1004
(dp1005
g7
g8
(g9
(I0
tp1006
g11
tp1007
Rp1008
(I1
(I3
tp1009
g15
(S'S3'
p1010
I0
I1
tp1011
Rp1012
(I3
S'<'
p1013
NNNI3
I1
I0
tp1014
bI00
S'\x00\x00\x00No\x00Yes'
p1015
tp1016
bsbag1
(g2
g3
Ntp1017
Rp1018
(dp1019
g7
g8
(g9
(I0
tp1020
g11
tp1021
Rp1022
(I1
(I3
tp1023
g15
(S'S3'
p1024
I0
I1
tp1025
Rp1026
(I3
S'<'
p1027
NNNI3
I1
I0
tp1028
bI00
S'\x00\x00\x00No\x00Yes'
p1029
tp1030
bsbag1
(g2
g3
Ntp1031
Rp1032
(dp1033
g7
g8
(g9
(I0
tp1034
g11
tp1035
Rp1036
(I1
(I3
tp1037
g15
(S'S3'
p1038
I0
I1
tp1039
Rp1040
(I3
S'<'
p1041
NNNI3
I1
I0
tp1042
bI00
S'\x00\x00\x00No\x00Yes'
p1043
tp1044
bsbag1
(g2
g3
Ntp1045
Rp1046
(dp1047
g7
g8
(g9
(I0
tp1048
g11
tp1049
Rp1050
(I1
(I3
tp1051
g15
(S'S3'
p1052
I0
I1
tp1053
Rp1054
(I3
S'<'
p1055
NNNI3
I1
I0
tp1056
bI00
S'\x00\x00\x00No\x00Yes'
p1057
tp1058
bsbag1
(g2
g3
Ntp1059
Rp1060
(dp1061
g7
g8
(g9
(I0
tp1062
g11
tp1063
Rp1064
(I1
(I3
tp1065
g15
(S'S11'
p1066
I0
I1
tp1067
Rp1068
(I3
S'<'
p1069
NNNI11
I1
I0
tp1070
bI00
S'\x00\x00\x00\x00\x00\x00\x00\x00\x00\x00\x00Grrr peopleYay people!'
p1071
tp1072
bsbag1
(g2
g3
Ntp1073
Rp1074
(dp1075
g7
g8
(g9
(I0
tp1076
g11
tp1077
Rp1078
(I1
(I3
tp1079
g15
(S'S3'
p1080
I0
I1
tp1081
Rp1082
(I3
S'<'
p1083
NNNI3
I1
I0
tp1084
bI00
S'\x00\x00\x00No\x00Yes'
p1085
tp1086
bsbag1
(g2
g3
Ntp1087
Rp1088
(dp1089
g7
g8
(g9
(I0
tp1090
g11
tp1091
Rp1092
(I1
(I3
tp1093
g15
(S'S3'
p1094
I0
I1
tp1095
Rp1096
(I3
S'<'
p1097
NNNI3
I1
I0
tp1098
bI00
S'\x00\x00\x00No\x00Yes'
p1099
tp1100
bsbag1
(g2
g3
Ntp1101
Rp1102
(dp1103
g7
g8
(g9
(I0
tp1104
g11
tp1105
Rp1106
(I1
(I3
tp1107
g15
(S'S3'
p1108
I0
I1
tp1109
Rp1110
(I3
S'<'
p1111
NNNI3
I1
I0
tp1112
bI00
S'\x00\x00\x00No\x00Yes'
p1113
tp1114
bsbag1
(g2
g3
Ntp1115
Rp1116
(dp1117
g7
g8
(g9
(I0
tp1118
g11
tp1119
Rp1120
(I1
(I3
tp1121
g15
(S'S3'
p1122
I0
I1
tp1123
Rp1124
(I3
S'<'
p1125
NNNI3
I1
I0
tp1126
bI00
S'\x00\x00\x00No\x00Yes'
p1127
tp1128
bsbag1
(g2
g3
Ntp1129
Rp1130
(dp1131
g7
g8
(g9
(I0
tp1132
g11
tp1133
Rp1134
(I1
(I3
tp1135
g15
(S'S3'
p1136
I0
I1
tp1137
Rp1138
(I3
S'<'
p1139
NNNI3
I1
I0
tp1140
bI00
S'\x00\x00\x00No\x00Yes'
p1141
tp1142
bsbag1
(g2
g3
Ntp1143
Rp1144
(dp1145
g7
g8
(g9
(I0
tp1146
g11
tp1147
Rp1148
(I1
(I3
tp1149
g15
(S'S3'
p1150
I0
I1
tp1151
Rp1152
(I3
S'<'
p1153
NNNI3
I1
I0
tp1154
bI00
S'\x00\x00\x00No\x00Yes'
p1155
tp1156
bsbag1
(g2
g3
Ntp1157
Rp1158
(dp1159
g7
g8
(g9
(I0
tp1160
g11
tp1161
Rp1162
(I1
(I3
tp1163
g15
(S'S3'
p1164
I0
I1
tp1165
Rp1166
(I3
S'<'
p1167
NNNI3
I1
I0
tp1168
bI00
S'\x00\x00\x00No\x00Yes'
p1169
tp1170
bsbag1
(g2
g3
Ntp1171
Rp1172
(dp1173
g7
g8
(g9
(I0
tp1174
g11
tp1175
Rp1176
(I1
(I3
tp1177
g15
(S'S3'
p1178
I0
I1
tp1179
Rp1180
(I3
S'<'
p1181
NNNI3
I1
I0
tp1182
bI00
S'\x00\x00\x00No\x00Yes'
p1183
tp1184
bsbag1
(g2
g3
Ntp1185
Rp1186
(dp1187
g7
g8
(g9
(I0
tp1188
g11
tp1189
Rp1190
(I1
(I3
tp1191
g15
(S'S3'
p1192
I0
I1
tp1193
Rp1194
(I3
S'<'
p1195
NNNI3
I1
I0
tp1196
bI00
S'\x00\x00\x00No\x00Yes'
p1197
tp1198
bsbag1
(g2
g3
Ntp1199
Rp1200
(dp1201
g7
g8
(g9
(I0
tp1202
g11
tp1203
Rp1204
(I1
(I3
tp1205
g15
(S'S3'
p1206
I0
I1
tp1207
Rp1208
(I3
S'<'
p1209
NNNI3
I1
I0
tp1210
bI00
S'\x00\x00\x00No\x00Yes'
p1211
tp1212
bsbag1
(g2
g3
Ntp1213
Rp1214
(dp1215
g7
g8
(g9
(I0
tp1216
g11
tp1217
Rp1218
(I1
(I3
tp1219
g15
(S'S3'
p1220
I0
I1
tp1221
Rp1222
(I3
S'<'
p1223
NNNI3
I1
I0
tp1224
bI00
S'\x00\x00\x00No\x00Yes'
p1225
tp1226
bsbag1
(g2
g3
Ntp1227
Rp1228
(dp1229
g7
g8
(g9
(I0
tp1230
g11
tp1231
Rp1232
(I1
(I3
tp1233
g15
(S'S3'
p1234
I0
I1
tp1235
Rp1236
(I3
S'<'
p1237
NNNI3
I1
I0
tp1238
bI00
S'\x00\x00\x00No\x00Yes'
p1239
tp1240
bsbag1
(g2
g3
Ntp1241
Rp1242
(dp1243
g7
g8
(g9
(I0
tp1244
g11
tp1245
Rp1246
(I1
(I3
tp1247
g15
(S'S4'
p1248
I0
I1
tp1249
Rp1250
(I3
S'<'
p1251
NNNI4
I1
I0
tp1252
bI00
S'\x00\x00\x00\x00Own\x00Rent'
p1253
tp1254
bsbag1
(g2
g3
Ntp1255
Rp1256
(dp1257
g7
g8
(g9
(I0
tp1258
g11
tp1259
Rp1260
(I1
(I3
tp1261
g15
(S'S9'
p1262
I0
I1
tp1263
Rp1264
(I3
S'<'
p1265
NNNI9
I1
I0
tp1266
bI00
S'\x00\x00\x00\x00\x00\x00\x00\x00\x00Optimist\x00Pessimist'
p1267
tp1268
bsbag1
(g2
g3
Ntp1269
Rp1270
(dp1271
g7
g8
(g9
(I0
tp1272
g11
tp1273
Rp1274
(I1
(I3
tp1275
g15
(S'S3'
p1276
I0
I1
tp1277
Rp1278
(I3
S'<'
p1279
NNNI3
I1
I0
tp1280
bI00
S'\x00\x00\x00DadMom'
p1281
tp1282
bsbag1
(g2
g3
Ntp1283
Rp1284
(dp1285
g7
g8
(g9
(I0
tp1286
g11
tp1287
Rp1288
(I1
(I3
tp1289
g15
(S'S3'
p1290
I0
I1
tp1291
Rp1292
(I3
S'<'
p1293
NNNI3
I1
I0
tp1294
bI00
S'\x00\x00\x00No\x00Yes'
p1295
tp1296
bsbag1
(g2
g3
Ntp1297
Rp1298
(dp1299
g7
g8
(g9
(I0
tp1300
g11
tp1301
Rp1302
(I1
(I3
tp1303
g15
(S'S3'
p1304
I0
I1
tp1305
Rp1306
(I3
S'<'
p1307
NNNI3
I1
I0
tp1308
bI00
S'\x00\x00\x00No\x00Yes'
p1309
tp1310
bsbag1
(g2
g3
Ntp1311
Rp1312
(dp1313
g7
g8
(g9
(I0
tp1314
g11
tp1315
Rp1316
(I1
(I3
tp1317
g15
(S'S3'
p1318
I0
I1
tp1319
Rp1320
(I3
S'<'
p1321
NNNI3
I1
I0
tp1322
bI00
S'\x00\x00\x00No\x00Yes'
p1323
tp1324
bsbag1
(g2
g3
Ntp1325
Rp1326
(dp1327
g7
g8
(g9
(I0
tp1328
g11
tp1329
Rp1330
(I1
(I3
tp1331
g15
(S'S3'
p1332
I0
I1
tp1333
Rp1334
(I3
S'<'
p1335
NNNI3
I1
I0
tp1336
bI00
S'\x00\x00\x00No\x00Yes'
p1337
tp1338
bsbag1
(g2
g3
Ntp1339
Rp1340
(dp1341
g7
g8
(g9
(I0
tp1342
g11
tp1343
Rp1344
(I1
(I3
tp1345
g15
(S'S6'
p1346
I0
I1
tp1347
Rp1348
(I3
S'<'
p1349
NNNI6
I1
I0
tp1350
bI00
S'\x00\x00\x00\x00\x00\x00Check!Nope\x00\x00'
p1351
tp1352
bsbag1
(g2
g3
Ntp1353
Rp1354
(dp1355
g7
g8
(g9
(I0
tp1356
g11
tp1357
Rp1358
(I1
(I3
tp1359
g15
(S'S3'
p1360
I0
I1
tp1361
Rp1362
(I3
S'<'
p1363
NNNI3
I1
I0
tp1364
bI00
S'\x00\x00\x00No\x00Yes'
p1365
tp1366
bsbag1
(g2
g3
Ntp1367
Rp1368
(dp1369
g7
g8
(g9
(I0
tp1370
g11
tp1371
Rp1372
(I1
(I3
tp1373
g15
(S'S3'
p1374
I0
I1
tp1375
Rp1376
(I3
S'<'
p1377
NNNI3
I1
I0
tp1378
bI00
S'\x00\x00\x00No\x00Yes'
p1379
tp1380
bsbag1
(g2
g3
Ntp1381
Rp1382
(dp1383
g7
g8
(g9
(I0
tp1384
g11
tp1385
Rp1386
(I1
(I3
tp1387
g15
(S'S3'
p1388
I0
I1
tp1389
Rp1390
(I3
S'<'
p1391
NNNI3
I1
I0
tp1392
bI00
S'\x00\x00\x00No\x00Yes'
p1393
tp1394
bsbag1
(g2
g3
Ntp1395
Rp1396
(dp1397
g7
g8
(g9
(I0
tp1398
g11
tp1399
Rp1400
(I1
(I3
tp1401
g15
(S'S3'
p1402
I0
I1
tp1403
Rp1404
(I3
S'<'
p1405
NNNI3
I1
I0
tp1406
bI00
S'\x00\x00\x00No\x00Yes'
p1407
tp1408
bsbag1
(g2
g3
Ntp1409
Rp1410
(dp1411
g7
g8
(g9
(I0
tp1412
g11
tp1413
Rp1414
(I1
(I3
tp1415
g15
(S'S3'
p1416
I0
I1
tp1417
Rp1418
(I3
S'<'
p1419
NNNI3
I1
I0
tp1420
bI00
S'\x00\x00\x00No\x00Yes'
p1421
tp1422
bsbag1
(g2
g3
Ntp1423
Rp1424
(dp1425
g7
g8
(g9
(I0
tp1426
g11
tp1427
Rp1428
(I1
(I3
tp1429
g15
(S'S3'
p1430
I0
I1
tp1431
Rp1432
(I3
S'<'
p1433
NNNI3
I1
I0
tp1434
bI00
S'\x00\x00\x00No\x00Yes'
p1435
tp1436
bsbag1
(g2
g3
Ntp1437
Rp1438
(dp1439
g7
g8
(g9
(I0
tp1440
g11
tp1441
Rp1442
(I1
(I3
tp1443
g15
(S'S10'
p1444
I0
I1
tp1445
Rp1446
(I3
S'<'
p1447
NNNI10
I1
I0
tp1448
bI00
S'\x00\x00\x00\x00\x00\x00\x00\x00\x00\x00Only-childYes\x00\x00\x00\x00\x00\x00\x00'
p1449
tp1450
bsbag1
(g2
g3
Ntp1451
Rp1452
(dp1453
g7
g8
(g9
(I0
tp1454
g11
tp1455
Rp1456
(I1
(I3
tp1457
g15
(S'S3'
p1458
I0
I1
tp1459
Rp1460
(I3
S'<'
p1461
NNNI3
I1
I0
tp1462
bI00
S'\x00\x00\x00No\x00Yes'
p1463
tp1464
bsbag1
(g2
g3
Ntp1465
Rp1466
(dp1467
g7
g8
(g9
(I0
tp1468
g11
tp1469
Rp1470
(I1
(I3
tp1471
g15
(S'S3'
p1472
I0
I1
tp1473
Rp1474
(I3
S'<'
p1475
NNNI3
I1
I0
tp1476
bI00
S'\x00\x00\x00No\x00Yes'
p1477
tp1478
bsbag1
(g2
g3
Ntp1479
Rp1480
(dp1481
g7
g8
(g9
(I0
tp1482
g11
tp1483
Rp1484
(I1
(I3
tp1485
g15
(S'S3'
p1486
I0
I1
tp1487
Rp1488
(I3
S'<'
p1489
NNNI3
I1
I0
tp1490
bI00
S'\x00\x00\x00No\x00Yes'
p1491
tp1492
bsbag1
(g2
g3
Ntp1493
Rp1494
(dp1495
g7
g8
(g9
(I0
tp1496
g11
tp1497
Rp1498
(I1
(I0
tp1499
g15
(S'f8'
p1500
I0
I1
tp1501
Rp1502
(I3
S'<'
p1503
NNNI-1
I-1
I0
tp1504
bI00
S''
p1505
tp1506
bsbag1
(g2
g3
Ntp1507
Rp1508
(dp1509
g7
g8
(g9
(I0
tp1510
g11
tp1511
Rp1512
(I1
(I0
tp1513
g1502
I00
g1505
tp1514
bsbag1
(g2
g3
Ntp1515
Rp1516
(dp1517
g7
g8
(g9
(I0
tp1518
g11
tp1519
Rp1520
(I1
(I0
tp1521
g1502
I00
g1505
tp1522
bsbag1
(g2
g3
Ntp1523
Rp1524
(dp1525
g7
g8
(g9
(I0
tp1526
g11
tp1527
Rp1528
(I1
(I0
tp1529
g1502
I00
g1505
tp1530
bsba.